target datalayout = "e-m:e-p270:32:32-p271:32:32-p272:64:64-i64:64-i128:128-f80:128-n8:16:32:64-S128"
target triple = "x86_64-pc-linux-gnu"

%"class.net::QuicTime::Delta" = type { %"class.base::TimeDelta", i64 }
%"class.base::TimeDelta" = type { i64 }
%"class.net::QuicTime" = type { i64 }
%"class.net::RttStats" = type { %"class.net::QuicTime::Delta", %"class.net::QuicTime::Delta", %"class.net::QuicTime::Delta", %"class.net::QuicTime::Delta", %"class.net::QuicTime::Delta", i64, %"class.net::QuicTime::Delta", %"class.net::QuicTime", i32, %"class.net::WindowedFilter" }
%"class.net::WindowedFilter" = type { %"class.net::QuicTime::Delta", %"class.net::QuicTime::Delta", [3 x %"struct.net::WindowedFilter<net::QuicTime::Delta, net::MinFilter<net::QuicTime::Delta>, net::QuicTime, net::QuicTime::Delta>::Sample"] }
%"struct.net::WindowedFilter<net::QuicTime::Delta, net::MinFilter<net::QuicTime::Delta>, net::QuicTime, net::QuicTime::Delta>::Sample" = type { %"class.net::QuicTime::Delta", %"class.net::QuicTime" }

; Function Attrs: inlinehint mustprogress nounwind uwtable
define linkonce_odr noundef nonnull align 8 dereferenceable(16) ptr @_ZN3net8QuicTime5DeltaaSERKS1_(ptr noundef nonnull align 8 dereferenceable(16) %0, ptr noundef nonnull align 8 dereferenceable(16) %1) #4 comdat align 2 {
  %3 = alloca ptr, align 8
  %4 = alloca ptr, align 8
  %5 = alloca %"class.base::TimeDelta", align 8
  store ptr %0, ptr %3, align 8, !tbaa !23
  store ptr %1, ptr %4, align 8, !tbaa !23
  %6 = load ptr, ptr %3, align 8
  %7 = getelementptr inbounds nuw %"class.net::QuicTime::Delta", ptr %6, i32 0, i32 0
  %8 = load ptr, ptr %4, align 8, !tbaa !23
  %9 = getelementptr inbounds nuw %"class.net::QuicTime::Delta", ptr %8, i32 0, i32 0
  call void @llvm.memcpy.p0.p0.i64(ptr align 8 %5, ptr align 8 %9, i64 8, i1 false), !tbaa.struct !21
  %10 = getelementptr inbounds nuw %"class.base::TimeDelta", ptr %5, i32 0, i32 0
  %11 = load i64, ptr %10, align 8
  %12 = call noundef nonnull align 8 dereferenceable(8) ptr @_ZN4base9TimeDeltaaSES0_(ptr noundef nonnull align 8 dereferenceable(8) %7, i64 %11)
  %13 = load ptr, ptr %4, align 8, !tbaa !23
  %14 = getelementptr inbounds nuw %"class.net::QuicTime::Delta", ptr %13, i32 0, i32 1
  %15 = load i64, ptr %14, align 8, !tbaa !25
  %16 = getelementptr inbounds nuw %"class.net::QuicTime::Delta", ptr %6, i32 0, i32 1
  store i64 %15, ptr %16, align 8, !tbaa !25
  ret ptr %6
}

; Function Attrs: mustprogress nounwind uwtable
define linkonce_odr void @_ZN4base9TimeDeltaC2Ev(ptr noundef nonnull align 8 dereferenceable(8) %0) unnamed_addr #6 comdat align 2 {
  %2 = alloca ptr, align 8
  store ptr %0, ptr %2, align 8, !tbaa !38
  %3 = load ptr, ptr %2, align 8
  %4 = getelementptr inbounds nuw %"class.base::TimeDelta", ptr %3, i32 0, i32 0
  store i64 0, ptr %4, align 8, !tbaa !40
  ret void
}

; Function Attrs: inlinehint mustprogress nounwind uwtable
define linkonce_odr noundef nonnull align 8 dereferenceable(24) ptr @_ZN3net14WindowedFilterINS_8QuicTime5DeltaENS_9MinFilterIS2_EES1_S2_E6SampleaSERKS6_(ptr noundef nonnull align 8 dereferenceable(24) %0, ptr noundef nonnull align 8 dereferenceable(24) %1) #4 comdat align 2 {
  %3 = alloca ptr, align 8
  %4 = alloca ptr, align 8
  store ptr %0, ptr %3, align 8, !tbaa !56
  store ptr %1, ptr %4, align 8, !tbaa !56
  %5 = load ptr, ptr %3, align 8
  %6 = getelementptr inbounds nuw %"struct.net::WindowedFilter<net::QuicTime::Delta, net::MinFilter<net::QuicTime::Delta>, net::QuicTime, net::QuicTime::Delta>::Sample", ptr %5, i32 0, i32 0
  %7 = load ptr, ptr %4, align 8, !tbaa !56
  %8 = getelementptr inbounds nuw %"struct.net::WindowedFilter<net::QuicTime::Delta, net::MinFilter<net::QuicTime::Delta>, net::QuicTime, net::QuicTime::Delta>::Sample", ptr %7, i32 0, i32 0
  %9 = call noundef nonnull align 8 dereferenceable(16) ptr @_ZN3net8QuicTime5DeltaaSERKS1_(ptr noundef nonnull align 8 dereferenceable(16) %6, ptr noundef nonnull align 8 dereferenceable(16) %8)
  %10 = getelementptr inbounds nuw %"struct.net::WindowedFilter<net::QuicTime::Delta, net::MinFilter<net::QuicTime::Delta>, net::QuicTime, net::QuicTime::Delta>::Sample", ptr %5, i32 0, i32 1
  %11 = load ptr, ptr %4, align 8, !tbaa !56
  %12 = getelementptr inbounds nuw %"struct.net::WindowedFilter<net::QuicTime::Delta, net::MinFilter<net::QuicTime::Delta>, net::QuicTime, net::QuicTime::Delta>::Sample", ptr %11, i32 0, i32 1
  call void @llvm.memcpy.p0.p0.i64(ptr align 8 %10, ptr align 8 %12, i64 8, i1 false), !tbaa.struct !21
  ret ptr %5
}

; Function Attrs: inlinehint mustprogress uwtable
define linkonce_odr noundef nonnull align 8 dereferenceable(24) ptr @_ZN3net14WindowedFilterINS_8QuicTime5DeltaENS_9MinFilterIS2_EES1_S2_E6SampleaSEOS6_(ptr noundef nonnull align 8 dereferenceable(24) %0, ptr noundef nonnull align 8 dereferenceable(24) %1) #1 comdat align 2 {
  %3 = alloca ptr, align 8
  %4 = alloca ptr, align 8
  store ptr %0, ptr %3, align 8, !tbaa !56
  store ptr %1, ptr %4, align 8, !tbaa !56
  %5 = load ptr, ptr %3, align 8
  %6 = getelementptr inbounds nuw %"struct.net::WindowedFilter<net::QuicTime::Delta, net::MinFilter<net::QuicTime::Delta>, net::QuicTime, net::QuicTime::Delta>::Sample", ptr %5, i32 0, i32 0
  %7 = load ptr, ptr %4, align 8, !tbaa !56
  %8 = getelementptr inbounds nuw %"struct.net::WindowedFilter<net::QuicTime::Delta, net::MinFilter<net::QuicTime::Delta>, net::QuicTime, net::QuicTime::Delta>::Sample", ptr %7, i32 0, i32 0
  %9 = call noundef nonnull align 8 dereferenceable(16) ptr @_ZN3net8QuicTime5DeltaaSEOS1_(ptr noundef nonnull align 8 dereferenceable(16) %6, ptr noundef nonnull align 8 dereferenceable(16) %8)
  %10 = getelementptr inbounds nuw %"struct.net::WindowedFilter<net::QuicTime::Delta, net::MinFilter<net::QuicTime::Delta>, net::QuicTime, net::QuicTime::Delta>::Sample", ptr %5, i32 0, i32 1
  %11 = load ptr, ptr %4, align 8, !tbaa !56
  %12 = getelementptr inbounds nuw %"struct.net::WindowedFilter<net::QuicTime::Delta, net::MinFilter<net::QuicTime::Delta>, net::QuicTime, net::QuicTime::Delta>::Sample", ptr %11, i32 0, i32 1
  call void @llvm.memcpy.p0.p0.i64(ptr align 8 %10, ptr align 8 %12, i64 8, i1 false), !tbaa.struct !21
  ret ptr %5
}

; Function Attrs: mustprogress nounwind uwtable
define linkonce_odr void @_ZN3net14WindowedFilterINS_8QuicTime5DeltaENS_9MinFilterIS2_EES1_S2_E6SampleC2ES2_S1_(ptr noundef nonnull align 8 dereferenceable(24) %0, i64 %1, i64 %2, i64 %3) unnamed_addr #6 comdat align 2 {
  %5 = alloca %"class.net::QuicTime::Delta", align 8
  %6 = alloca %"class.net::QuicTime", align 8
  %7 = alloca ptr, align 8
  %8 = getelementptr inbounds nuw { i64, i64 }, ptr %5, i32 0, i32 0
  store i64 %1, ptr %8, align 8
  %9 = getelementptr inbounds nuw { i64, i64 }, ptr %5, i32 0, i32 1
  store i64 %2, ptr %9, align 8
  %10 = getelementptr inbounds nuw %"class.net::QuicTime", ptr %6, i32 0, i32 0
  store i64 %3, ptr %10, align 8
  store ptr %0, ptr %7, align 8, !tbaa !56
  %11 = load ptr, ptr %7, align 8
  %12 = getelementptr inbounds nuw %"struct.net::WindowedFilter<net::QuicTime::Delta, net::MinFilter<net::QuicTime::Delta>, net::QuicTime, net::QuicTime::Delta>::Sample", ptr %11, i32 0, i32 0
  call void @llvm.memcpy.p0.p0.i64(ptr align 8 %12, ptr align 8 %5, i64 16, i1 false), !tbaa.struct !20
  %13 = getelementptr inbounds nuw %"struct.net::WindowedFilter<net::QuicTime::Delta, net::MinFilter<net::QuicTime::Delta>, net::QuicTime, net::QuicTime::Delta>::Sample", ptr %11, i32 0, i32 1
  call void @llvm.memcpy.p0.p0.i64(ptr align 8 %13, ptr align 8 %6, i64 8, i1 false), !tbaa.struct !21
  ret void
}

; Function Attrs: inlinehint mustprogress nounwind uwtable
define linkonce_odr void @_ZN3net8QuicTimeC2El(ptr noundef nonnull align 8 dereferenceable(8) %0, i64 noundef %1) unnamed_addr #4 comdat align 2 {
  %3 = alloca ptr, align 8
  %4 = alloca i64, align 8
  store ptr %0, ptr %3, align 8, !tbaa !41
  store i64 %1, ptr %4, align 8, !tbaa !17
  %5 = load ptr, ptr %3, align 8
  %6 = getelementptr inbounds nuw %"class.net::QuicTime", ptr %5, i32 0, i32 0
  %7 = load i64, ptr %4, align 8, !tbaa !17
  store i64 %7, ptr %6, align 8, !tbaa !43
  ret void
}

; Function Attrs: mustprogress nounwind uwtable
define linkonce_odr noundef nonnull align 8 dereferenceable(8) ptr @_ZN4base9TimeDeltaaSES0_(ptr noundef nonnull align 8 dereferenceable(8) %0, i64 %1) #6 comdat align 2 {
  %3 = alloca %"class.base::TimeDelta", align 8
  %4 = alloca ptr, align 8
  %5 = getelementptr inbounds nuw %"class.base::TimeDelta", ptr %3, i32 0, i32 0
  store i64 %1, ptr %5, align 8
  store ptr %0, ptr %4, align 8, !tbaa !38
  %6 = load ptr, ptr %4, align 8
  %7 = getelementptr inbounds nuw %"class.base::TimeDelta", ptr %3, i32 0, i32 0
  %8 = load i64, ptr %7, align 8, !tbaa !40
  %9 = getelementptr inbounds nuw %"class.base::TimeDelta", ptr %6, i32 0, i32 0
  store i64 %8, ptr %9, align 8, !tbaa !40
  ret ptr %6
}

; Function Attrs: inlinehint mustprogress uwtable
define linkonce_odr void @_ZN3net8QuicTime5DeltaC2El(ptr noundef nonnull align 8 dereferenceable(16) %0, i64 noundef %1) unnamed_addr #1 comdat align 2 {
  %3 = alloca ptr, align 8
  %4 = alloca i64, align 8
  store ptr %0, ptr %3, align 8, !tbaa !23
  store i64 %1, ptr %4, align 8, !tbaa !17
  %5 = load ptr, ptr %3, align 8
  %6 = getelementptr inbounds nuw %"class.net::QuicTime::Delta", ptr %5, i32 0, i32 0
  call void @_ZN4base9TimeDeltaC2Ev(ptr noundef nonnull align 8 dereferenceable(8) %6)
  %7 = getelementptr inbounds nuw %"class.net::QuicTime::Delta", ptr %5, i32 0, i32 1
  %8 = load i64, ptr %4, align 8, !tbaa !17
  store i64 %8, ptr %7, align 8, !tbaa !25
  ret void
}

; Function Attrs: mustprogress uwtable
define linkonce_odr void @_ZN3net14WindowedFilterINS_8QuicTime5DeltaENS_9MinFilterIS2_EES1_S2_E5ResetES2_S1_(ptr noundef nonnull align 8 dereferenceable(104) %0, i64 %1, i64 %2, i64 %3) #0 comdat align 2 {
  %5 = alloca %"class.net::QuicTime::Delta", align 8
  %6 = alloca %"class.net::QuicTime", align 8
  %7 = alloca ptr, align 8
  %8 = alloca %"struct.net::WindowedFilter<net::QuicTime::Delta, net::MinFilter<net::QuicTime::Delta>, net::QuicTime, net::QuicTime::Delta>::Sample", align 8
  %9 = alloca %"class.net::QuicTime::Delta", align 8
  %10 = alloca %"class.net::QuicTime", align 8
  %11 = getelementptr inbounds nuw { i64, i64 }, ptr %5, i32 0, i32 0
  store i64 %1, ptr %11, align 8
  %12 = getelementptr inbounds nuw { i64, i64 }, ptr %5, i32 0, i32 1
  store i64 %2, ptr %12, align 8
  %13 = getelementptr inbounds nuw %"class.net::QuicTime", ptr %6, i32 0, i32 0
  store i64 %3, ptr %13, align 8
  store ptr %0, ptr %7, align 8, !tbaa !18
  %14 = load ptr, ptr %7, align 8
  call void @llvm.lifetime.start.p0(i64 24, ptr %8) #9
  call void @llvm.memcpy.p0.p0.i64(ptr align 8 %9, ptr align 8 %5, i64 16, i1 false), !tbaa.struct !20
  call void @llvm.memcpy.p0.p0.i64(ptr align 8 %10, ptr align 8 %6, i64 8, i1 false), !tbaa.struct !21
  %15 = getelementptr inbounds nuw { i64, i64 }, ptr %9, i32 0, i32 0
  %16 = load i64, ptr %15, align 8
  %17 = getelementptr inbounds nuw { i64, i64 }, ptr %9, i32 0, i32 1
  %18 = load i64, ptr %17, align 8
  %19 = getelementptr inbounds nuw %"class.net::QuicTime", ptr %10, i32 0, i32 0
  %20 = load i64, ptr %19, align 8
  call void @_ZN3net14WindowedFilterINS_8QuicTime5DeltaENS_9MinFilterIS2_EES1_S2_E6SampleC2ES2_S1_(ptr noundef nonnull align 8 dereferenceable(24) %8, i64 %16, i64 %18, i64 %20)
  %21 = getelementptr inbounds nuw %"class.net::WindowedFilter", ptr %14, i32 0, i32 2
  %22 = getelementptr inbounds [3 x %"struct.net::WindowedFilter<net::QuicTime::Delta, net::MinFilter<net::QuicTime::Delta>, net::QuicTime, net::QuicTime::Delta>::Sample"], ptr %21, i64 0, i64 2
  %23 = call noundef nonnull align 8 dereferenceable(24) ptr @_ZN3net14WindowedFilterINS_8QuicTime5DeltaENS_9MinFilterIS2_EES1_S2_E6SampleaSEOS6_(ptr noundef nonnull align 8 dereferenceable(24) %22, ptr noundef nonnull align 8 dereferenceable(24) %8)
  %24 = getelementptr inbounds nuw %"class.net::WindowedFilter", ptr %14, i32 0, i32 2
  %25 = getelementptr inbounds [3 x %"struct.net::WindowedFilter<net::QuicTime::Delta, net::MinFilter<net::QuicTime::Delta>, net::QuicTime, net::QuicTime::Delta>::Sample"], ptr %24, i64 0, i64 1
  %26 = call noundef nonnull align 8 dereferenceable(24) ptr @_ZN3net14WindowedFilterINS_8QuicTime5DeltaENS_9MinFilterIS2_EES1_S2_E6SampleaSERKS6_(ptr noundef nonnull align 8 dereferenceable(24) %25, ptr noundef nonnull align 8 dereferenceable(24) %23)
  %27 = getelementptr inbounds nuw %"class.net::WindowedFilter", ptr %14, i32 0, i32 2
  %28 = getelementptr inbounds [3 x %"struct.net::WindowedFilter<net::QuicTime::Delta, net::MinFilter<net::QuicTime::Delta>, net::QuicTime, net::QuicTime::Delta>::Sample"], ptr %27, i64 0, i64 0
  %29 = call noundef nonnull align 8 dereferenceable(24) ptr @_ZN3net14WindowedFilterINS_8QuicTime5DeltaENS_9MinFilterIS2_EES1_S2_E6SampleaSERKS6_(ptr noundef nonnull align 8 dereferenceable(24) %28, ptr noundef nonnull align 8 dereferenceable(24) %26)
  call void @llvm.lifetime.end.p0(i64 24, ptr %8) #9
  ret void
}

; Function Attrs: inlinehint mustprogress uwtable
define linkonce_odr i64 @_ZN3net8QuicTime4ZeroEv() #1 comdat align 2 {
  %1 = alloca %"class.net::QuicTime", align 8
  call void @_ZN3net8QuicTimeC2El(ptr noundef nonnull align 8 dereferenceable(8) %1, i64 noundef 0)
  %2 = getelementptr inbounds nuw %"class.net::QuicTime", ptr %1, i32 0, i32 0
  %3 = load i64, ptr %2, align 8
  ret i64 %3
}

; Function Attrs: inlinehint mustprogress uwtable
define linkonce_odr noundef nonnull align 8 dereferenceable(16) ptr @_ZN3net8QuicTime5DeltaaSEOS1_(ptr noundef nonnull align 8 dereferenceable(16) %0, ptr noundef nonnull align 8 dereferenceable(16) %1) #1 comdat align 2 {
  %3 = alloca ptr, align 8
  %4 = alloca ptr, align 8
  %5 = alloca %"class.base::TimeDelta", align 8
  store ptr %0, ptr %3, align 8, !tbaa !23
  store ptr %1, ptr %4, align 8, !tbaa !23
  %6 = load ptr, ptr %3, align 8
  %7 = getelementptr inbounds nuw %"class.net::QuicTime::Delta", ptr %6, i32 0, i32 0
  %8 = load ptr, ptr %4, align 8, !tbaa !23
  %9 = getelementptr inbounds nuw %"class.net::QuicTime::Delta", ptr %8, i32 0, i32 0
  call void @llvm.memcpy.p0.p0.i64(ptr align 8 %5, ptr align 8 %9, i64 8, i1 false), !tbaa.struct !21
  %10 = getelementptr inbounds nuw %"class.base::TimeDelta", ptr %5, i32 0, i32 0
  %11 = load i64, ptr %10, align 8
  %12 = call noundef nonnull align 8 dereferenceable(8) ptr @_ZN4base9TimeDeltaaSES0_(ptr noundef nonnull align 8 dereferenceable(8) %7, i64 %11)
  %13 = load ptr, ptr %4, align 8, !tbaa !23
  %14 = getelementptr inbounds nuw %"class.net::QuicTime::Delta", ptr %13, i32 0, i32 1
  %15 = load i64, ptr %14, align 8, !tbaa !25
  %16 = getelementptr inbounds nuw %"class.net::QuicTime::Delta", ptr %6, i32 0, i32 1
  store i64 %15, ptr %16, align 8, !tbaa !25
  ret ptr %6
}

; Function Attrs: inlinehint mustprogress uwtable
define linkonce_odr { i64, i64 } @_ZN3net8QuicTime5Delta4ZeroEv() #1 comdat align 2 {
  %1 = alloca %"class.net::QuicTime::Delta", align 8
  call void @_ZN3net8QuicTime5DeltaC2El(ptr noundef nonnull align 8 dereferenceable(16) %1, i64 noundef 0)
  %2 = load { i64, i64 }, ptr %1, align 8
  ret { i64, i64 } %2
}

; Function Attrs: mustprogress uwtable
define void @_ZN3net8RttStats21OnConnectionMigrationEv(ptr noundef nonnull align 8 dereferenceable(224) %0) #0 align 2 {
  %2 = alloca ptr, align 8
  %3 = alloca %"class.net::QuicTime::Delta", align 8
  %4 = alloca %"class.net::QuicTime::Delta", align 8
  %5 = alloca %"class.net::QuicTime::Delta", align 8
  %6 = alloca %"class.net::QuicTime::Delta", align 8
  %7 = alloca %"class.net::QuicTime::Delta", align 8
  %8 = alloca %"class.net::QuicTime", align 8
  store ptr %0, ptr %2, align 8, !tbaa !3
  %9 = load ptr, ptr %2, align 8
  call void @llvm.lifetime.start.p0(i64 16, ptr %3) #9
  %10 = call { i64, i64 } @_ZN3net8QuicTime5Delta4ZeroEv()
  %11 = getelementptr inbounds nuw { i64, i64 }, ptr %3, i32 0, i32 0
  %12 = extractvalue { i64, i64 } %10, 0
  store i64 %12, ptr %11, align 8
  %13 = getelementptr inbounds nuw { i64, i64 }, ptr %3, i32 0, i32 1
  %14 = extractvalue { i64, i64 } %10, 1
  store i64 %14, ptr %13, align 8
  %15 = getelementptr inbounds nuw %"class.net::RttStats", ptr %9, i32 0, i32 0
  %16 = call noundef nonnull align 8 dereferenceable(16) ptr @_ZN3net8QuicTime5DeltaaSEOS1_(ptr noundef nonnull align 8 dereferenceable(16) %15, ptr noundef nonnull align 8 dereferenceable(16) %3)
  call void @llvm.lifetime.end.p0(i64 16, ptr %3) #9
  call void @llvm.lifetime.start.p0(i64 16, ptr %4) #9
  %17 = call { i64, i64 } @_ZN3net8QuicTime5Delta4ZeroEv()
  %18 = getelementptr inbounds nuw { i64, i64 }, ptr %4, i32 0, i32 0
  %19 = extractvalue { i64, i64 } %17, 0
  store i64 %19, ptr %18, align 8
  %20 = getelementptr inbounds nuw { i64, i64 }, ptr %4, i32 0, i32 1
  %21 = extractvalue { i64, i64 } %17, 1
  store i64 %21, ptr %20, align 8
  %22 = getelementptr inbounds nuw %"class.net::RttStats", ptr %9, i32 0, i32 1
  %23 = call noundef nonnull align 8 dereferenceable(16) ptr @_ZN3net8QuicTime5DeltaaSEOS1_(ptr noundef nonnull align 8 dereferenceable(16) %22, ptr noundef nonnull align 8 dereferenceable(16) %4)
  call void @llvm.lifetime.end.p0(i64 16, ptr %4) #9
  call void @llvm.lifetime.start.p0(i64 16, ptr %5) #9
  %24 = call { i64, i64 } @_ZN3net8QuicTime5Delta4ZeroEv()
  %25 = getelementptr inbounds nuw { i64, i64 }, ptr %5, i32 0, i32 0
  %26 = extractvalue { i64, i64 } %24, 0
  store i64 %26, ptr %25, align 8
  %27 = getelementptr inbounds nuw { i64, i64 }, ptr %5, i32 0, i32 1
  %28 = extractvalue { i64, i64 } %24, 1
  store i64 %28, ptr %27, align 8
  %29 = getelementptr inbounds nuw %"class.net::RttStats", ptr %9, i32 0, i32 2
  %30 = call noundef nonnull align 8 dereferenceable(16) ptr @_ZN3net8QuicTime5DeltaaSEOS1_(ptr noundef nonnull align 8 dereferenceable(16) %29, ptr noundef nonnull align 8 dereferenceable(16) %5)
  call void @llvm.lifetime.end.p0(i64 16, ptr %5) #9
  call void @llvm.lifetime.start.p0(i64 16, ptr %6) #9
  %31 = call { i64, i64 } @_ZN3net8QuicTime5Delta4ZeroEv()
  %32 = getelementptr inbounds nuw { i64, i64 }, ptr %6, i32 0, i32 0
  %33 = extractvalue { i64, i64 } %31, 0
  store i64 %33, ptr %32, align 8
  %34 = getelementptr inbounds nuw { i64, i64 }, ptr %6, i32 0, i32 1
  %35 = extractvalue { i64, i64 } %31, 1
  store i64 %35, ptr %34, align 8
  %36 = getelementptr inbounds nuw %"class.net::RttStats", ptr %9, i32 0, i32 4
  %37 = call noundef nonnull align 8 dereferenceable(16) ptr @_ZN3net8QuicTime5DeltaaSEOS1_(ptr noundef nonnull align 8 dereferenceable(16) %36, ptr noundef nonnull align 8 dereferenceable(16) %6)
  call void @llvm.lifetime.end.p0(i64 16, ptr %6) #9
  %38 = getelementptr inbounds nuw %"class.net::RttStats", ptr %9, i32 0, i32 5
  store i64 100000, ptr %38, align 8, !tbaa !8
  %39 = getelementptr inbounds nuw %"class.net::RttStats", ptr %9, i32 0, i32 8
  store i32 0, ptr %39, align 8, !tbaa !16
  %40 = getelementptr inbounds nuw %"class.net::RttStats", ptr %9, i32 0, i32 9
  %41 = call { i64, i64 } @_ZN3net8QuicTime5Delta4ZeroEv()
  %42 = getelementptr inbounds nuw { i64, i64 }, ptr %7, i32 0, i32 0
  %43 = extractvalue { i64, i64 } %41, 0
  store i64 %43, ptr %42, align 8
  %44 = getelementptr inbounds nuw { i64, i64 }, ptr %7, i32 0, i32 1
  %45 = extractvalue { i64, i64 } %41, 1
  store i64 %45, ptr %44, align 8
  %46 = call i64 @_ZN3net8QuicTime4ZeroEv()
  %47 = getelementptr inbounds nuw %"class.net::QuicTime", ptr %8, i32 0, i32 0
  store i64 %46, ptr %47, align 8
  %48 = getelementptr inbounds nuw { i64, i64 }, ptr %7, i32 0, i32 0
  %49 = load i64, ptr %48, align 8
  %50 = getelementptr inbounds nuw { i64, i64 }, ptr %7, i32 0, i32 1
  %51 = load i64, ptr %50, align 8
  %52 = getelementptr inbounds nuw %"class.net::QuicTime", ptr %8, i32 0, i32 0
  %53 = load i64, ptr %52, align 8
  call void @_ZN3net14WindowedFilterINS_8QuicTime5DeltaENS_9MinFilterIS2_EES1_S2_E5ResetES2_S1_(ptr noundef nonnull align 8 dereferenceable(104) %40, i64 %49, i64 %51, i64 %53)
  ret void
}